;
; Copyright (C) 2021 Lucid Systems Pty Ltd - All Rights Reserved
;

LIBRARY ds_db

EXPORTS
   ??0statement@db@ds@@QAE@V?$shared_ptr@Vimpl@statement@db@ds@@@std@@@Z
   ??0transaction@db@ds@@QAE@AAVtransactional@12@@Z
   ??1transaction@db@ds@@QAE@XZ
   ??0savepoint@db@ds@@QAE@AAVimpl@12@ABV?$basic_string@DU?$char_traits@D@std@@V?$allocator@D@2@@std@@@Z
   ??1savepoint@db@ds@@QAE@XZ
   ??Eiterator@statement@db@ds@@QAEAAV0123@XZ
   ??9iterator@statement@db@ds@@QBE_NABV0123@@Z
   ??8iterator@statement@db@ds@@QBE_NABV0123@@Z
   ?begin@statement@db@ds@@QAE?AViterator@123@XZ
   ?end@statement@db@ds@@QAE?AViterator@123@XZ
   ?execute@statement@db@ds@@QAEXXZ
   ??0connection@db@ds@@QAE@ABV?$basic_string@DU?$char_traits@D@std@@V?$allocator@D@2@@std@@@Z
   ?type@connection@db@ds@@UBEPBDXZ
   ?create@connection@db@ds@@UAEXABV?$basic_string@DU?$char_traits@D@std@@V?$allocator@D@2@@std@@@Z
   ?use@connection@db@ds@@UAEXABV?$basic_string@DU?$char_traits@D@std@@V?$allocator@D@2@@std@@@Z
   ?drop@connection@db@ds@@UAE_NABV?$basic_string@DU?$char_traits@D@std@@V?$allocator@D@2@@std@@@Z
   ?execute_batch@connection@db@ds@@UAEXABV?$basic_string@DU?$char_traits@D@std@@V?$allocator@D@2@@std@@@Z
   ?commit_transaction@connection@db@ds@@UAEXXZ
   ?rollback_transaction@connection@db@ds@@UAEXXZ
   ?savepoint@connection@db@ds@@UAEXABV?$basic_string@DU?$char_traits@D@std@@V?$allocator@D@2@@std@@@Z
   ?release_savepoint@connection@db@ds@@UAEXABV?$basic_string@DU?$char_traits@D@std@@V?$allocator@D@2@@std@@@Z
   ?rollback_to_savepoint@connection@db@ds@@UAEXABV?$basic_string@DU?$char_traits@D@std@@V?$allocator@D@2@@std@@@Z
   ?enroll_sql_path_list@context@db@ds@@SAXABV?$basic_string@DU?$char_traits@D@std@@V?$allocator@D@2@@std@@@Z
   ?clear_sql_path_list@context@db@ds@@SAXXZ
   ??0context@db@ds@@QAE@AAVconnection@12@@Z
   ??0context@db@ds@@QAE@ABV?$basic_string@DU?$char_traits@D@std@@V?$allocator@D@2@@std@@@Z
   ??0context@db@ds@@QAE@ABVconnect_params_t@2@@Z
   ?execute_batch@context@db@ds@@UAEXABV?$basic_string@DU?$char_traits@D@std@@V?$allocator@D@2@@std@@@Z
   ?lookup@context@db@ds@@QAEPBDABV?$basic_string@DU?$char_traits@D@std@@V?$allocator@D@2@@std@@@Z
   ?keys@context@db@ds@@QAE?AV?$set@V?$basic_string@DU?$char_traits@D@std@@V?$allocator@D@2@@std@@U?$less@V?$basic_string@DU?$char_traits@D@std@@V?$allocator@D@2@@std@@@2@V?$allocator@V?$basic_string@DU?$char_traits@D@std@@V?$allocator@D@2@@std@@@2@@std@@XZ
   ??0enumerator@parameter@db@ds@@QAE@ABV?$basic_string@DU?$char_traits@D@std@@V?$allocator@D@2@@std@@PBD@Z
   ??Diterator@enumerator@parameter@db@ds@@QBEABUparameter_t@01234@XZ
   ??Eiterator@enumerator@parameter@db@ds@@QAE?AV01234@XZ
   ??9iterator@enumerator@parameter@db@ds@@QBE_NABV01234@@Z
   ?begin@enumerator@parameter@db@ds@@QBE?AViterator@1234@XZ
   ?end@enumerator@parameter@db@ds@@QBE?AViterator@1234@XZ
   ??0iterator@statement@db@ds@@QAE@XZ
   ??Eiterator@statement@db@ds@@QAEAAV0123@H@Z
   ??0connection@db@ds@@QAE@ABVconnect_params_t@2@@Z
   ??0rowset@db@ds@@QAE@V?$shared_ptr@Vimpl@rowset@db@ds@@@std@@@Z
   ?result@statement@db@ds@@QAE?AVrowset@23@XZ
   ?rows_affected@rowset@db@ds@@QBEHXZ
   ??5rowset@db@ds@@UAEAAVistream@2@AAC@Z
   ??5rowset@db@ds@@UAEAAVistream@2@AAF@Z
   ??5rowset@db@ds@@UAEAAVistream@2@AAH@Z
   ??5rowset@db@ds@@UAEAAVistream@2@AA_J@Z
   ??5rowset@db@ds@@UAEAAVistream@2@AAE@Z
   ??5rowset@db@ds@@UAEAAVistream@2@AAG@Z
   ??5rowset@db@ds@@UAEAAVistream@2@AAI@Z
   ??5rowset@db@ds@@UAEAAVistream@2@AA_K@Z
   ??5rowset@db@ds@@UAEAAVistream@2@AAN@Z
   ??5rowset@db@ds@@UAEAAVistream@2@AAV?$basic_string@DU?$char_traits@D@std@@V?$allocator@D@2@@std@@@Z
   ??8rowset@db@ds@@QBE_NABV012@@Z
   ?get_null@rowset@db@ds@@UAE_NXZ
   ?endr@rowset@db@ds@@UAEXXZ
   ?eof@rowset@db@ds@@UBE_NXZ
   ??Diterator@statement@db@ds@@QAE?AVrowset@23@XZ
   ??Citerator@statement@db@ds@@QAEPAVrowset@23@XZ
   ?column_count@rowset@db@ds@@QBEHXZ
   ?step@rowset@db@ds@@QAE_NXZ
   ??0simple_rowset@db@ds@@QAE@_K@Z
   ??0rowset@db@ds@@QAE@XZ
   ?enroll_db_path_list@connection@db@ds@@SAXABV?$basic_string@DU?$char_traits@D@std@@V?$allocator@D@2@@std@@@Z
   ?clear_db_path_list@connection@db@ds@@SAXXZ
   ??Rconnection@db@ds@@UAE?AVstatement@12@ABV?$basic_string@DU?$char_traits@D@std@@V?$allocator@D@2@@std@@ABV?$vector@V?$basic_string@DU?$char_traits@D@std@@V?$allocator@D@2@@std@@V?$allocator@V?$basic_string@DU?$char_traits@D@std@@V?$allocator@D@2@@std@@@2@@5@@Z
   ?put_null@statement@db@ds@@UAEXXZ
   ?reset@statement@db@ds@@QAEXXZ
   