;
; Copyright (C) 2021 Lucid Systems Pty Ltd - All Rights Reserved
;

LIBRARY ds

EXPORTS
   ??_R0?AVNot_implemented@ds@@@8            DATA
   ??0Not_implemented@ds@@QEAA@AEBV01@@Z
   ??0Not_implemented@ds@@QEAA@XZ
   ??1Not_implemented@ds@@UEAA@XZ
   ??1istream@ds@@UEAA@XZ
   ??1ostream@ds@@UEAA@XZ
   ??5ds@@YAAEAVistream@0@AEAV10@P6AAEAV10@0@Z@Z
   ??5istream@ds@@UEAAAEAV01@AEAC@Z
   ??5istream@ds@@UEAAAEAV01@AEAE@Z
   ??5istream@ds@@UEAAAEAV01@AEAF@Z
   ??5istream@ds@@UEAAAEAV01@AEAG@Z
   ??5istream@ds@@UEAAAEAV01@AEAH@Z
   ??5istream@ds@@UEAAAEAV01@AEAI@Z
   ??5istream@ds@@UEAAAEAV01@AEAN@Z
   ??5istream@ds@@UEAAAEAV01@AEAV?$basic_string@DU?$char_traits@D@std@@V?$allocator@D@2@@std@@@Z
   ??5istream@ds@@UEAAAEAV01@AEA_J@Z
   ??5istream@ds@@UEAAAEAV01@AEA_K@Z
   ??6ds@@YAAEAVostream@0@AEAV10@P6AAEAV10@0@Z@Z
   ??6ostream@ds@@UEAAAEAV01@AEBV?$basic_string@DU?$char_traits@D@std@@V?$allocator@D@2@@std@@@Z
   ??6ostream@ds@@UEAAAEAV01@C@Z
   ??6ostream@ds@@UEAAAEAV01@E@Z
   ??6ostream@ds@@UEAAAEAV01@F@Z
   ??6ostream@ds@@UEAAAEAV01@G@Z
   ??6ostream@ds@@UEAAAEAV01@H@Z
   ??6ostream@ds@@UEAAAEAV01@I@Z
   ??6ostream@ds@@UEAAAEAV01@N@Z
   ??6ostream@ds@@UEAAAEAV01@PEBD@Z
   ??6ostream@ds@@UEAAAEAV01@_J@Z
   ??6ostream@ds@@UEAAAEAV01@_K@Z
   ?endr@ds@@YAAEAVistream@1@AEAV21@@Z
   ?endr@ds@@YAAEAVostream@1@AEAV21@@Z
   ?endr@istream@ds@@UEAAXXZ
   ?endr@ostream@ds@@UEAAXXZ
   ?read@istream@ds@@UEAAXPEAX_K@Z
   ?write@ostream@ds@@UEAAXPEBX_K@Z
   ?eof@istream@ds@@UEBA_NXZ
   ??0stream_underrun@ds@@QEAA@XZ
   ??0stream_overrun@ds@@QEAA@XZ
   ?get_null@istream@ds@@UEAA_NXZ
   ?put_null@ostream@ds@@UEAAXXZ
   ?name@istream@ds@@UEAAAEBV?$basic_string@DU?$char_traits@D@std@@V?$allocator@D@2@@std@@XZ
   ?name@ostream@ds@@UEAAAEBV?$basic_string@DU?$char_traits@D@std@@V?$allocator@D@2@@std@@XZ
   ??0null_value@ds@@QEAA@XZ