;
; Copyright (C) 2021 Lucid Systems Pty Ltd - All Rights Reserved
;

LIBRARY ds_util

EXPORTS
   ??Diterator@find@filesys@ds@@QEBA?AV?$basic_string@DU?$char_traits@D@std@@V?$allocator@D@2@@std@@XZ
   ??Eiterator@find@filesys@ds@@QEAAAEAV0123@XZ
   ??9iterator@find@filesys@ds@@QEBA_NAEBV0123@@Z
   ??8iterator@find@filesys@ds@@QEBA_NAEBV0123@@Z
   ??0find@filesys@ds@@QEAA@AEBV?$basic_string@DU?$char_traits@D@std@@V?$allocator@D@2@@std@@AEBV?$vector@V?$basic_string@DU?$char_traits@D@std@@V?$allocator@D@2@@std@@V?$allocator@V?$basic_string@DU?$char_traits@D@std@@V?$allocator@D@2@@std@@@2@@4@@Z
   ?begin@find@filesys@ds@@QEBA?AViterator@123@XZ
   ?end@find@filesys@ds@@QEBA?AViterator@123@XZ
   ?find_symbol@module@ds@@AEBAPEAXAEBV?$basic_string@DU?$char_traits@D@std@@V?$allocator@D@2@@std@@@Z
   ??0module@ds@@QEAA@AEBV?$basic_string@DU?$char_traits@D@std@@V?$allocator@D@2@@std@@@Z
   ?close@module@ds@@QEAAXXZ
   ?get@env@ds@@YA?AV?$basic_string@DU?$char_traits@D@std@@V?$allocator@D@2@@std@@PEBD@Z
   ??0dir_list@env@ds@@QEAA@AEBV?$basic_string@DU?$char_traits@D@std@@V?$allocator@D@2@@std@@@Z
   ??Diterator@dir_list@env@ds@@QEBAPEBDXZ
   ??Eiterator@dir_list@env@ds@@QEAA?AV0123@XZ
   ??9iterator@dir_list@env@ds@@QEBA_NAEBV0123@@Z
   ?begin@dir_list@env@ds@@QEBA?AViterator@123@XZ
   ?end@dir_list@env@ds@@QEBA?AViterator@123@XZ
   ?gmtime@time@ds@@YAXPEB_JPEAUtm@@@Z
   ?timegm@time@ds@@YA_JPEBUtm@@@Z
   ?parse_iso_8601_date@time@ds@@YA_NPEBDPEAUtm@@@Z
   ?parse_iso_8601_time@time@ds@@YA_NPEBDPEAUtm@@@Z
   ?parse_iso_8601@time@ds@@YA_NPEBDPEAUtm@@@Z
   ?format_iso_8601_date@time@ds@@YAXPEBUtm@@PEAD@Z
   ?format_iso_8601_time@time@ds@@YAXPEBUtm@@PEAD@Z
   ?format_iso_8601@time@ds@@YAXPEBUtm@@PEAD@Z
   ?cmpignorecase@string@ds@@YAHPEBD0_K@Z
   ?cmpignorecase@string@ds@@YAHPEBD0@Z
   ?exists@filesys@ds@@YA_NPEBD@Z
   ?remove@filesys@ds@@YAXPEBD@Z
   ?htol@endian@ds@@YAGG@Z
   ?htol@endian@ds@@YAII@Z
   ?htol@endian@ds@@YA_K_K@Z
   ?htob@endian@ds@@YAGG@Z
   ?htob@endian@ds@@YAII@Z
   ?htob@endian@ds@@YA_K_K@Z
   ?temp_directory@filesys@ds@@YA?AV?$basic_string@DU?$char_traits@D@std@@V?$allocator@D@2@@std@@XZ
   ?parse_connect_string@ds@@YA?AVconnect_params_t@1@AEBV?$basic_string@DU?$char_traits@D@std@@V?$allocator@D@2@@std@@@Z
   ?form_connect_string@ds@@YA?AV?$basic_string@DU?$char_traits@D@std@@V?$allocator@D@2@@std@@AEBVconnect_params_t@1@@Z
   ?escape@url@ds@@YA?AV?$basic_string@DU?$char_traits@D@std@@V?$allocator@D@2@@std@@AEBV34@@Z
   ?parse_iso_8601_time@time@ds@@YA_NPEBDPEAUstamp@12@@Z
   ?parse_iso_8601@time@ds@@YA_NPEBDPEAUstamp@12@@Z
   ?format_iso_8601_time@time@ds@@YAXPEBUstamp@12@PEAD@Z
   ?format_iso_8601@time@ds@@YAXPEBUstamp@12@PEAD@Z
